; Function Attrs: nounwind uwtable
define internal i32 @T42_Size_Init(ptr noundef captures(none) %0) #0 {
  %2 = alloca ptr, align 8
  %3 = load ptr, ptr %0, align 8, !tbaa !195
  call void @llvm.lifetime.start.p0(i64 8, ptr nonnull %2) #13
  %4 = getelementptr inbounds nuw i8, ptr %3, i64 808
  %5 = load ptr, ptr %4, align 8, !tbaa !19
  %6 = call i32 @FT_New_Size(ptr noundef %5, ptr noundef nonnull %2) #13
  %.not = icmp eq i32 %6, 0
  %.pre = load ptr, ptr %2, align 8, !tbaa !199
  br i1 %.not, label %7, label %9

7:                                                ; preds = %1
  %8 = getelementptr inbounds nuw i8, ptr %0, i64 88
  store ptr %.pre, ptr %8, align 8, !tbaa !200
  br label %9

9:                                                ; preds = %7, %1
  %10 = call i32 @FT_Activate_Size(ptr noundef %.pre) #13
  call void @llvm.lifetime.end.p0(i64 8, ptr nonnull %2) #13
  ret i32 %6
}